ccopy_reg
_reconstructor
p0
(cutils.preprocessing
Tokenizer
p1
c__builtin__
object
p2
Ntp3
Rp4
(dp5
S'lower'
p6
I00
sS'word_index'
p7
(dp8
V!
p9
I76
sV#
p10
I75
sV%
p11
I54
sV$
p12
I40
sV'
p13
I25
sV&
p14
I69
sV*
p15
I77
sV-
p16
I26
sV,
p17
I22
sV/
p18
I66
sV.
p19
I19
sV1
p20
I30
sV0
p21
I32
sV3
p22
I45
sV2
p23
I39
sV5
p24
I41
sV4
p25
I53
sV7
p26
I56
sV6
p27
I59
sV9
p28
I42
sV8
p29
I43
sV;
p30
I70
sV:
p31
I67
sV=
p32
I78
sV?
p33
I71
sVA
p34
I35
sV@
p35
I79
sVC
p36
I31
sVB
p37
I34
sVE
p38
I50
sVD
p39
I49
sVG
p40
I58
sVF
p41
I48
sVI
p42
I37
sVH
p43
I55
sVK
p44
I64
sVJ
p45
I60
sVM
p46
I33
sVL
p47
I44
sVO
p48
I62
sVN
p49
I47
sVQ
p50
I72
sVP
p51
I46
sVS
p52
I28
sVR
p53
I38
sVU
p54
I61
sVT
p55
I27
sVW
p56
I52
sVV
p57
I68
sVY
p58
I65
sVX
p59
I74
sVZ
p60
I73
sVa
p61
I3
sV`
p62
I29
sVc
p63
I12
sVb
p64
I20
sVe
p65
I1
sVd
p66
I11
sVg
p67
I17
sVf
p68
I16
sVi
p69
I5
sVh
p70
I10
sVk
p71
I24
sVj
p72
I57
sVm
p73
I14
sVl
p74
I9
sVo
p75
I4
sVn
p76
I6
sVq
p77
I51
sVp
p78
I15
sVs
p79
I7
sVr
p80
I8
sVu
p81
I13
sVt
p82
I2
sVw
p83
I21
sVv
p84
I23
sVy
p85
I18
sVx
p86
I36
sVz
p87
I63
sS'-unseen-'
p88
I80
ssS'nb_words'
p89
NsS'char_encoding'
p90
I01
sS'sorted_freqs'
p91
(lp92
I465837
aI336283
aI321049
aI291148
aI284823
aI281163
aI268381
aI261248
aI164299
aI158053
aI144271
aI126200
aI105102
aI94370
aI82774
aI80712
aI74621
aI64592
aI62992
aI53709
aI53381
aI50615
aI38862
aI29505
aI27873
aI22440
aI14670
aI14161
aI14060
aI13871
aI13469
aI13247
aI12527
aI12162
aI11753
aI10483
aI10215
aI8745
aI7725
aI7374
aI7287
aI7082
aI6489
aI6210
aI6014
aI5962
aI5792
aI5556
aI5336
aI5329
aI5241
aI5123
aI4998
aI4982
aI4912
aI4530
aI4285
aI4195
aI4151
aI3901
aI3763
aI3737
aI3440
aI1899
aI1721
aI1572
aI1408
aI1338
aI1318
aI1125
aI396
aI301
aI212
aI167
aI142
aI62
aI26
aI2
aI1
asS'char_level'
p93
I00
sS'word_counts'
p94
(dp95
g9
I62
sg10
I142
sg11
I4982
sg12
I7374
sg13
I27873
sg14
I1318
sg15
I26
sg16
I22440
sg17
I50615
sg18
I1572
sg19
I62992
sg20
I13871
sg21
I13247
sg22
I6014
sg23
I7725
sg24
I7287
sg25
I4998
sg26
I4530
sg27
I4151
sg28
I7082
sg29
I6489
sg30
I1125
sg31
I1408
sg32
I2
sg33
I396
sg34
I11753
sg35
I1
sg36
I13469
sg37
I12162
sg38
I5329
sg39
I5336
sg40
I4195
sg41
I5556
sg42
I10215
sg43
I4912
sg44
I1899
sg45
I3901
sg46
I12527
sg47
I6210
sg48
I3737
sg49
I5792
sg50
I301
sg51
I5962
sg52
I14161
sg53
I8745
sg54
I3763
sg55
I14670
sg56
I5123
sg57
I1338
sg58
I1721
sg59
I167
sg60
I212
sg61
I321049
sg62
I14060
sg63
I126200
sg64
I53709
sg65
I465837
sg66
I144271
sg67
I74621
sg68
I80712
sg69
I284823
sg70
I158053
sg71
I29505
sg72
I4285
sg73
I94370
sg74
I164299
sg75
I291148
sg76
I281163
sg77
I5241
sg78
I82774
sg79
I268381
sg80
I261248
sg81
I105102
sg82
I336283
sg83
I53381
sg84
I38862
sg85
I64592
sg86
I10483
sg87
I3440
ssS'split'
p96
S' '
p97
sS'filters'
p98
S'!"#$%&()*+,-./:;<=>?@[\\]^_`{|}~\t\n'
p99
sS'word_docs'
p100
(dp101
sS'index_docs'
p102
(dp103
sS'document_count'
p104
I39832
sb.