ccopy_reg
_reconstructor
p0
(cutils.preprocessing
Tokenizer
p1
c__builtin__
object
p2
Ntp3
Rp4
(dp5
S'lower'
p6
I00
sS'word_index'
p7
(dp8
VPRP$
p9
I22
sVVBG
p10
I18
sVVBD
p11
I11
sV``
p12
I24
sVVBN
p13
I16
sV,
p14
I7
sV''
p15
I25
sVVBP
p16
I19
sVWDT
p17
I27
sVJJ
p18
I5
sVWP
p19
I31
sVVBZ
p20
I15
sVDT
p21
I4
sV#
p22
I42
sVRP
p23
I30
sV$
p24
I23
sVNN
p25
I1
sVFW
p26
I40
sVPOS
p27
I21
sV.
p28
I8
sVTO
p29
I14
sVPRP
p30
I17
sVRB
p31
I10
sV-LRB-
p32
I36
sV:
p33
I26
sVNNS
p34
I6
sVNNP
p35
I3
sVVB
p36
I12
sVWRB
p37
I32
sVCC
p38
I13
sVLS
p39
I45
sVPDT
p40
I38
sVRBS
p41
I39
sVRBR
p42
I34
sVCD
p43
I9
sVEX
p44
I37
sVIN
p45
I2
sVWP$
p46
I41
sVMD
p47
I20
sVNNPS
p48
I29
sV-RRB-
p49
I35
sS'-unseen-'
p50
I46
sVJJS
p51
I33
sVJJR
p52
I28
sVSYM
p53
I44
sVUH
p54
I43
ssS'nb_words'
p55
NsS'char_encoding'
p56
I00
sS'sorted_freqs'
p57
(lp58
I132037
aI98862
aI91075
aI81745
aI61421
aI59852
aI48723
aI39478
aI36671
aI30309
aI29946
aI26373
aI23884
aI22357
aI21698
aI20274
aI17425
aI14995
aI12627
aI9823
aI8707
aI8435
aI7372
aI7092
aI6922
aI4769
aI4305
aI3416
aI3194
aI2791
aI2364
aI2141
aI1934
aI1731
aI1376
aI1366
aI875
aI505
aI465
aI223
aI168
aI142
aI77
aI62
aI21
asS'char_level'
p59
I00
sS'word_counts'
p60
(dp61
g9
I8435
sg10
I14995
sg11
I29946
sg13
I20274
sg14
I48723
sg15
I6922
sg16
I12627
sg17
I4305
sg18
I61421
sg19
I2364
sg20
I21698
sg21
I81745
sg22
I142
sg23
I2791
sg24
I7372
sg25
I132037
sg26
I223
sg27
I8707
sg28
I39478
sg29
I22357
sg30
I17425
sg31
I30309
sg32
I1366
sg33
I4769
sg34
I59852
sg35
I91075
sg12
I7092
sg37
I2141
sg38
I23884
sg39
I21
sg40
I505
sg41
I465
sg42
I1731
sg43
I36671
sg44
I875
sg45
I98862
sg46
I168
sg47
I9823
sg48
I3194
sg49
I1376
sg51
I1934
sg52
I3416
sg53
I62
sg36
I26373
sg54
I77
ssS'split'
p62
S' '
p63
sS'filters'
p64
S'!"#$%&()*+,-./:;<=>?@[\\]^_`{|}~\t\n'
p65
sS'word_docs'
p66
(dp67
g9
I7266
sg10
I11902
sg11
I20553
sg13
I15402
sg14
I25472
sg15
I6341
sg16
I9946
sg17
I4056
sg18
I29341
sg19
I2218
sg20
I16195
sg21
I33575
sg22
I100
sg23
I2672
sg24
I5030
sg25
I36629
sg26
I164
sg27
I7620
sg28
I39169
sg29
I16779
sg30
I12665
sg31
I19917
sg32
I1240
sg33
I3486
sg34
I28679
sg35
I26197
sg12
I6456
sg37
I2030
sg38
I17844
sg39
I21
sg40
I498
sg41
I458
sg42
I1662
sg43
I15272
sg44
I851
sg45
I34592
sg46
I166
sg47
I8662
sg48
I2820
sg49
I1245
sg51
I1857
sg52
I3069
sg53
I62
sg36
I18032
sg54
I66
ssS'index_docs'
p68
(dp69
I1
I36629
sI2
I34592
sI3
I26197
sI4
I33575
sI5
I29341
sI6
I28679
sI7
I25472
sI8
I39169
sI9
I15272
sI10
I19917
sI11
I20553
sI12
I18032
sI13
I17844
sI14
I16779
sI15
I16195
sI16
I15402
sI17
I12665
sI18
I11902
sI19
I9946
sI20
I8662
sI21
I7620
sI22
I7266
sI23
I5030
sI24
I6456
sI25
I6341
sI26
I3486
sI27
I4056
sI28
I3069
sI29
I2820
sI30
I2672
sI31
I2218
sI32
I2030
sI33
I1857
sI34
I1662
sI35
I1245
sI36
I1240
sI37
I851
sI38
I498
sI39
I458
sI40
I164
sI41
I166
sI42
I100
sI43
I66
sI44
I62
sI45
I21
ssS'document_count'
p70
I39832
sb.